target datalayout = "e-m:e-p270:32:32-p271:32:32-p272:64:64-i64:64-i128:128-f80:128-n8:16:32:64-S128"
target triple = "x86_64-pc-linux-gnu"

; Function Attrs: nounwind uwtable
define i32 @Xz_ReadVarInt(ptr noundef %0, i64 noundef %1, ptr noundef %2) #0 {
  %4 = alloca i32, align 4
  %5 = alloca ptr, align 8
  %6 = alloca i64, align 8
  %7 = alloca ptr, align 8
  %8 = alloca i32, align 4
  %9 = alloca i32, align 4
  %10 = alloca i8, align 1
  store ptr %0, ptr %5, align 8
  store i64 %1, ptr %6, align 8
  store ptr %2, ptr %7, align 8
  %11 = load ptr, ptr %7, align 8
  store i64 0, ptr %11, align 8
  %12 = load i64, ptr %6, align 8
  %13 = icmp ugt i64 %12, 9
  br i1 %13, label %14, label %15

14:                                               ; preds = %3
  br label %18

15:                                               ; preds = %3
  %16 = load i64, ptr %6, align 8
  %17 = trunc i64 %16 to i32
  br label %18

18:                                               ; preds = %15, %14
  %19 = phi i32 [ 9, %14 ], [ %17, %15 ]
  store i32 %19, ptr %9, align 4
  store i32 0, ptr %8, align 4
  br label %20

20:                                               ; preds = %58, %18
  %21 = load i32, ptr %8, align 4
  %22 = load i32, ptr %9, align 4
  %23 = icmp slt i32 %21, %22
  br i1 %23, label %24, label %59

24:                                               ; preds = %20
  %25 = load ptr, ptr %5, align 8
  %26 = load i32, ptr %8, align 4
  %27 = sext i32 %26 to i64
  %28 = getelementptr inbounds i8, ptr %25, i64 %27
  %29 = load i8, ptr %28, align 1
  store i8 %29, ptr %10, align 1
  %30 = load i8, ptr %10, align 1
  %31 = zext i8 %30 to i32
  %32 = and i32 %31, 127
  %33 = sext i32 %32 to i64
  %34 = load i32, ptr %8, align 4
  %35 = add nsw i32 %34, 1
  store i32 %35, ptr %8, align 4
  %36 = mul nsw i32 7, %34
  %37 = zext i32 %36 to i64
  %38 = shl i64 %33, %37
  %39 = load ptr, ptr %7, align 8
  %40 = load i64, ptr %39, align 8
  %41 = or i64 %40, %38
  store i64 %41, ptr %39, align 8
  %42 = load i8, ptr %10, align 1
  %43 = zext i8 %42 to i32
  %44 = and i32 %43, 128
  %45 = icmp eq i32 %44, 0
  br i1 %45, label %46, label %58

46:                                               ; preds = %24
  %47 = load i8, ptr %10, align 1
  %48 = zext i8 %47 to i32
  %49 = icmp eq i32 %48, 0
  br i1 %49, label %50, label %54

50:                                               ; preds = %46
  %51 = load i32, ptr %8, align 4
  %52 = icmp ne i32 %51, 1
  br i1 %52, label %53, label %54

53:                                               ; preds = %50
  br label %56

54:                                               ; preds = %50, %46
  %55 = load i32, ptr %8, align 4
  br label %56

56:                                               ; preds = %54, %53
  %57 = phi i32 [ 0, %53 ], [ %55, %54 ]
  store i32 %57, ptr %4, align 4
  br label %60

58:                                               ; preds = %24
  br label %20

59:                                               ; preds = %20
  store i32 0, ptr %4, align 4
  br label %60

60:                                               ; preds = %59, %56
  %61 = load i32, ptr %4, align 4
  ret i32 %61
}