; Function Attrs: nofree norecurse nosync nounwind memory(argmem: readwrite) uwtable
define i32 @Xz_ReadVarInt(ptr noundef readonly captures(none) %0, i64 noundef %1, ptr noundef writeonly captures(none) initializes((0, 8)) %2) local_unnamed_addr #0 {
  store i64 0, ptr %2, align 8
  %4 = tail call i64 @llvm.umin.i64(i64 %1, i64 9)
  br label %5

5:                                                ; preds = %7, %3
  %6 = phi i64 [ %14, %7 ], [ 0, %3 ]
  %indvars.iv = phi i64 [ %indvars.iv.next, %7 ], [ 0, %3 ]
  %exitcond.not = icmp eq i64 %indvars.iv, %4
  br i1 %exitcond.not, label %.loopexit, label %7

7:                                                ; preds = %5
  %8 = getelementptr inbounds nuw i8, ptr %0, i64 %indvars.iv
  %9 = load i8, ptr %8, align 1
  %10 = and i8 %9, 127
  %11 = zext nneg i8 %10 to i64
  %indvars.iv.next = add nuw nsw i64 %indvars.iv, 1
  %12 = mul nuw nsw i64 %indvars.iv, 7
  %13 = shl i64 %11, %12
  %14 = or i64 %13, %6
  store i64 %14, ptr %2, align 8
  %15 = icmp sgt i8 %9, -1
  br i1 %15, label %16, label %5

16:                                               ; preds = %7
  %17 = trunc nuw nsw i64 %indvars.iv.next to i32
  %18 = icmp eq i8 %9, 0
  %19 = icmp ne i64 %indvars.iv, 0
  %or.cond = and i1 %19, %18
  %20 = select i1 %or.cond, i32 0, i32 %17
  br label %.loopexit

.loopexit:                                        ; preds = %5, %16
  %.0 = phi i32 [ %20, %16 ], [ 0, %5 ]
  ret i32 %.0
}